target datalayout = "e-m:e-p270:32:32-p271:32:32-p272:64:64-i64:64-i128:128-f80:128-n8:16:32:64-S128"
target triple = "x86_64-pc-linux-gnu"

%struct.AVChannelLayout = type { i32, i32, %union.anon.1, ptr }
%union.anon.1 = type { i64 }
%struct.AVFilterContext = type { ptr, ptr, ptr, ptr, ptr, i32, ptr, ptr, i32, ptr, ptr, i32, i32, ptr, ptr, ptr, ptr, i32, ptr, i32, i32 }
%struct.AudioVectorScopeContext = type { ptr, ptr, i32, i32, i32, i32, i32, i32, i32, [4 x i32], [4 x i32], double, i32, i32, i32, i32, %struct.AVRational, i32 }
%struct.AVRational = type { i32, i32 }
%struct.AVFilterFormatsConfig = type { ptr, ptr, ptr, ptr, ptr }
%struct.AVFilterLink = type { ptr, ptr, ptr, ptr, i32, i32, i32, i32, %struct.AVRational, i32, i32, i32, %struct.AVChannelLayout, %struct.AVRational, ptr, i32, %struct.AVFilterFormatsConfig, %struct.AVFilterFormatsConfig }
%struct.FilterLink = type { %struct.AVFilterLink, ptr, i64, i64, i32, i32, i64, i64, i64, i64, %struct.AVRational, ptr }

; Function Attrs: alwaysinline nounwind uwtable
define internal i64 @av_inv_q(i64 %0) #7 {
  %2 = alloca %struct.AVRational, align 4
  %3 = alloca %struct.AVRational, align 4
  store i64 %0, ptr %3, align 4
  %4 = getelementptr inbounds nuw %struct.AVRational, ptr %2, i32 0, i32 0
  %5 = getelementptr inbounds nuw %struct.AVRational, ptr %3, i32 0, i32 1
  %6 = load i32, ptr %5, align 4, !tbaa !60
  store i32 %6, ptr %4, align 4, !tbaa !59
  %7 = getelementptr inbounds nuw %struct.AVRational, ptr %2, i32 0, i32 1
  %8 = getelementptr inbounds nuw %struct.AVRational, ptr %3, i32 0, i32 0
  %9 = load i32, ptr %8, align 4, !tbaa !59
  store i32 %9, ptr %7, align 4, !tbaa !60
  %10 = load i64, ptr %2, align 4
  ret i64 %10
}

; Function Attrs: inlinehint nounwind uwtable
define internal ptr @ff_filter_link(ptr noundef %0) #5 {
  %2 = alloca ptr, align 8
  store ptr %0, ptr %2, align 8, !tbaa !32
  %3 = load ptr, ptr %2, align 8, !tbaa !32
  ret ptr %3
}

; Function Attrs: nounwind uwtable
define internal i32 @config_output(ptr noundef %0) #1 {
  %2 = alloca ptr, align 8
  %3 = alloca ptr, align 8
  %4 = alloca ptr, align 8
  %5 = alloca %struct.AVRational, align 4
  %6 = alloca %struct.AVRational, align 4
  store ptr %0, ptr %2, align 8, !tbaa !32
  call void @llvm.lifetime.start.p0(i64 8, ptr %3) #11
  %7 = load ptr, ptr %2, align 8, !tbaa !32
  %8 = getelementptr inbounds nuw %struct.AVFilterLink, ptr %7, i32 0, i32 0
  %9 = load ptr, ptr %8, align 8, !tbaa !52
  %10 = getelementptr inbounds nuw %struct.AVFilterContext, ptr %9, i32 0, i32 9
  %11 = load ptr, ptr %10, align 8, !tbaa !9
  store ptr %11, ptr %3, align 8, !tbaa !22
  call void @llvm.lifetime.start.p0(i64 8, ptr %4) #11
  %12 = load ptr, ptr %2, align 8, !tbaa !32
  %13 = call ptr @ff_filter_link(ptr noundef %12)
  store ptr %13, ptr %4, align 8, !tbaa !53
  %14 = load ptr, ptr %3, align 8, !tbaa !22
  %15 = getelementptr inbounds nuw %struct.AudioVectorScopeContext, ptr %14, i32 0, i32 2
  %16 = load i32, ptr %15, align 8, !tbaa !55
  %17 = load ptr, ptr %2, align 8, !tbaa !32
  %18 = getelementptr inbounds nuw %struct.AVFilterLink, ptr %17, i32 0, i32 6
  store i32 %16, ptr %18, align 8, !tbaa !56
  %19 = load ptr, ptr %3, align 8, !tbaa !22
  %20 = getelementptr inbounds nuw %struct.AudioVectorScopeContext, ptr %19, i32 0, i32 3
  %21 = load i32, ptr %20, align 4, !tbaa !57
  %22 = load ptr, ptr %2, align 8, !tbaa !32
  %23 = getelementptr inbounds nuw %struct.AVFilterLink, ptr %22, i32 0, i32 7
  store i32 %21, ptr %23, align 4, !tbaa !58
  %24 = load ptr, ptr %2, align 8, !tbaa !32
  %25 = getelementptr inbounds nuw %struct.AVFilterLink, ptr %24, i32 0, i32 8
  %26 = getelementptr inbounds nuw %struct.AVRational, ptr %5, i32 0, i32 0
  store i32 1, ptr %26, align 4, !tbaa !59
  %27 = getelementptr inbounds nuw %struct.AVRational, ptr %5, i32 0, i32 1
  store i32 1, ptr %27, align 4, !tbaa !60
  call void @llvm.memcpy.p0.p0.i64(ptr align 8 %25, ptr align 4 %5, i64 8, i1 false), !tbaa.struct !61
  %28 = load ptr, ptr %4, align 8, !tbaa !53
  %29 = getelementptr inbounds nuw %struct.FilterLink, ptr %28, i32 0, i32 10
  %30 = load ptr, ptr %3, align 8, !tbaa !22
  %31 = getelementptr inbounds nuw %struct.AudioVectorScopeContext, ptr %30, i32 0, i32 16
  call void @llvm.memcpy.p0.p0.i64(ptr align 8 %29, ptr align 8 %31, i64 8, i1 false), !tbaa.struct !61
  %32 = load ptr, ptr %2, align 8, !tbaa !32
  %33 = getelementptr inbounds nuw %struct.AVFilterLink, ptr %32, i32 0, i32 13
  call void @llvm.lifetime.start.p0(i64 8, ptr %6) #11
  %34 = load ptr, ptr %4, align 8, !tbaa !53
  %35 = getelementptr inbounds nuw %struct.FilterLink, ptr %34, i32 0, i32 10
  %36 = load i64, ptr %35, align 8
  %37 = call i64 @av_inv_q(i64 %36)
  store i64 %37, ptr %6, align 4
  call void @llvm.memcpy.p0.p0.i64(ptr align 8 %33, ptr align 4 %6, i64 8, i1 false), !tbaa.struct !61
  call void @llvm.lifetime.end.p0(i64 8, ptr %6) #11
  %38 = load ptr, ptr %3, align 8, !tbaa !22
  %39 = getelementptr inbounds nuw %struct.AudioVectorScopeContext, ptr %38, i32 0, i32 2
  %40 = load i32, ptr %39, align 8, !tbaa !55
  %41 = sdiv i32 %40, 2
  %42 = load ptr, ptr %3, align 8, !tbaa !22
  %43 = getelementptr inbounds nuw %struct.AudioVectorScopeContext, ptr %42, i32 0, i32 4
  store i32 %41, ptr %43, align 8, !tbaa !62
  %44 = load ptr, ptr %3, align 8, !tbaa !22
  %45 = getelementptr inbounds nuw %struct.AudioVectorScopeContext, ptr %44, i32 0, i32 14
  store i32 %41, ptr %45, align 8, !tbaa !63
  %46 = load ptr, ptr %3, align 8, !tbaa !22
  %47 = getelementptr inbounds nuw %struct.AudioVectorScopeContext, ptr %46, i32 0, i32 6
  %48 = load i32, ptr %47, align 8, !tbaa !64
  %49 = icmp eq i32 %48, 2
  br i1 %49, label %50, label %55

50:                                               ; preds = %1
  %51 = load ptr, ptr %3, align 8, !tbaa !22
  %52 = getelementptr inbounds nuw %struct.AudioVectorScopeContext, ptr %51, i32 0, i32 3
  %53 = load i32, ptr %52, align 4, !tbaa !57
  %54 = sub nsw i32 %53, 1
  br label %60

55:                                               ; preds = %1
  %56 = load ptr, ptr %3, align 8, !tbaa !22
  %57 = getelementptr inbounds nuw %struct.AudioVectorScopeContext, ptr %56, i32 0, i32 3
  %58 = load i32, ptr %57, align 4, !tbaa !57
  %59 = sdiv i32 %58, 2
  br label %60

60:                                               ; preds = %55, %50
  %61 = phi i32 [ %54, %50 ], [ %59, %55 ]
  %62 = load ptr, ptr %3, align 8, !tbaa !22
  %63 = getelementptr inbounds nuw %struct.AudioVectorScopeContext, ptr %62, i32 0, i32 5
  store i32 %61, ptr %63, align 4, !tbaa !65
  %64 = load ptr, ptr %3, align 8, !tbaa !22
  %65 = getelementptr inbounds nuw %struct.AudioVectorScopeContext, ptr %64, i32 0, i32 15
  store i32 %61, ptr %65, align 4, !tbaa !66
  call void @llvm.lifetime.end.p0(i64 8, ptr %4) #11
  call void @llvm.lifetime.end.p0(i64 8, ptr %3) #11
  ret i32 0
}