; Function Attrs: mustprogress nofree norecurse nosync nounwind willreturn memory(readwrite, inaccessiblemem: none) uwtable
define internal noundef i32 @config_output(ptr noundef captures(none) initializes((40, 56), (96, 104), (264, 272)) %0) #6 {
  %2 = load ptr, ptr %0, align 8, !tbaa !82
  %3 = getelementptr inbounds nuw i8, ptr %2, i64 72
  %4 = load ptr, ptr %3, align 8, !tbaa !4
  %5 = getelementptr inbounds nuw i8, ptr %4, i64 16
  %6 = load i32, ptr %5, align 8, !tbaa !75
  %7 = getelementptr inbounds nuw i8, ptr %0, i64 40
  store i32 %6, ptr %7, align 8, !tbaa !53
  %8 = getelementptr inbounds nuw i8, ptr %4, i64 20
  %9 = load i32, ptr %8, align 4, !tbaa !73
  %10 = getelementptr inbounds nuw i8, ptr %0, i64 44
  store i32 %9, ptr %10, align 4, !tbaa !55
  %11 = getelementptr inbounds nuw i8, ptr %0, i64 48
  store i32 1, ptr %11, align 8, !tbaa !56
  %.sroa.2.0..sroa_idx = getelementptr inbounds nuw i8, ptr %0, i64 52
  store i32 1, ptr %.sroa.2.0..sroa_idx, align 4, !tbaa !56
  %12 = getelementptr inbounds nuw i8, ptr %0, i64 264
  %13 = getelementptr inbounds nuw i8, ptr %4, i64 104
  %14 = load i64, ptr %13, align 8
  store i64 %14, ptr %12, align 8
  %15 = getelementptr inbounds nuw i8, ptr %0, i64 96
  %.sroa.01.0.insert.insert.i = tail call i64 @llvm.fshl.i64(i64 %14, i64 %14, i64 32)
  store i64 %.sroa.01.0.insert.insert.i, ptr %15, align 8
  %16 = load i32, ptr %5, align 8, !tbaa !75
  %17 = sdiv i32 %16, 2
  %18 = getelementptr inbounds nuw i8, ptr %4, i64 24
  store i32 %17, ptr %18, align 8, !tbaa !41
  %19 = getelementptr inbounds nuw i8, ptr %4, i64 96
  store i32 %17, ptr %19, align 8, !tbaa !43
  %20 = getelementptr inbounds nuw i8, ptr %4, i64 32
  %21 = load i32, ptr %20, align 8, !tbaa !72
  %22 = icmp eq i32 %21, 2
  %23 = load i32, ptr %8, align 4, !tbaa !73
  br i1 %22, label %24, label %26

24:                                               ; preds = %1
  %25 = add nsw i32 %23, -1
  br label %28

26:                                               ; preds = %1
  %27 = sdiv i32 %23, 2
  br label %28

28:                                               ; preds = %26, %24
  %29 = phi i32 [ %25, %24 ], [ %27, %26 ]
  %30 = getelementptr inbounds nuw i8, ptr %4, i64 28
  store i32 %29, ptr %30, align 4, !tbaa !42
  %31 = getelementptr inbounds nuw i8, ptr %4, i64 100
  store i32 %29, ptr %31, align 4, !tbaa !44
  ret i32 0
}